Certificate:
    Data:
        Version: 3 (0x2)
        Serial Number:
            67:63:f5:29:af:44:ba:79:ef:dd:dc:bf:bb:ab:3e:36:22:b8:71:26
        Signature Algorithm: sha384WithRSAEncryption
        Issuer: C=DE, ST=STATE, L=CITY, O=ORG, OU=ORGUNIT, CN=RootCA
        Validity
            Not Before: Oct  2 13:09:11 2023 GMT
            Not After : Feb 13 13:09:11 2025 GMT
        Subject: C=DE, ST=STATE, O=ORG, OU=ORGUNIT, CN=OrgCa
        Subject Public Key Info:
            Public Key Algorithm: rsaEncryption
                Public-Key: (2048 bit)
                Modulus:
                    00:e0:25:1f:af:4d:59:23:82:a6:f1:c9:33:d1:c6:
                    10:47:ad:f4:f2:b6:96:aa:79:2b:45:97:d3:d8:a5:
                    29:fe:9c:b9:2c:26:30:37:5f:ae:69:6a:ac:85:e0:
                    28:d3:d3:7e:83:c8:87:2a:70:e5:a6:78:99:d9:42:
                    f9:d3:17:c0:e1:bc:4c:51:af:f0:aa:a8:fb:19:65:
                    27:91:35:80:5a:3d:fd:90:0b:fc:af:a1:d3:af:26:
                    02:ba:7c:26:bc:aa:08:6e:cf:d5:5d:ed:c9:8c:33:
                    9f:63:51:45:49:1f:f2:1f:12:c2:7c:e4:42:05:8a:
                    ef:33:d3:0e:e5:44:58:99:88:aa:2f:e3:5f:37:d8:
                    36:fb:21:ac:90:0f:82:b9:55:bc:9e:ba:23:70:4a:
                    83:c0:44:37:c2:0a:9a:03:fb:1d:4a:d2:67:a8:70:
                    e0:8c:b2:c1:d7:d8:e7:c9:bd:ee:6f:f6:4e:f7:25:
                    f2:4b:9b:93:33:28:40:18:c6:f1:47:78:0d:84:fa:
                    7f:f4:82:9b:37:f0:37:84:25:b5:ae:f5:88:4f:d2:
                    d9:7e:61:c0:8e:92:24:c8:32:55:cb:c4:8c:e6:be:
                    1f:e8:32:e2:9f:18:1e:2f:a6:8f:80:27:d4:77:7b:
                    5d:2d:cb:eb:a4:b8:2f:28:a0:38:34:a5:91:c8:6e:
                    b6:71
                Exponent: 65537 (0x10001)
        X509v3 extensions:
            X509v3 Basic Constraints:
                CA:TRUE
            X509v3 Key Usage:
                Digital Signature, Key Encipherment, Certificate Sign
            X509v3 Extended Key Usage:
                TLS Web Server Authentication, TLS Web Client Authentication
            Netscape Comment:
                SSL Generated Certificate
            X509v3 Subject Key Identifier:
                9B:C1:07:5E:AB:5C:7E:6B:9E:E4:23:7B:18:61:34:CB:D0:06:91:3B
            X509v3 Authority Key Identifier:
                keyid:6E:6D:4B:35:22:23:3E:13:18:A5:93:61:0E:9C:BE:1E:D2:B8:1B:D4
                DirName:/C=DE/ST=STATE/L=CITY/O=ORG/OU=ORGUNIT/CN=RootCA
                serial:49:96:04:48:85:CB:0D:EC:2C:31:FE:EF:E9:CB:12:2B:DB:80:F8:71
    Signature Algorithm: sha384WithRSAEncryption
    Signature Value:
        78:5a:ac:de:87:a3:fb:d5:e1:29:4f:c3:1b:39:2b:da:29:78:
        1c:07:3d:e3:db:da:8a:40:3d:c3:d4:51:9d:21:59:d2:37:66:
        f5:47:69:b8:96:2a:2e:f0:35:1a:5b:5b:23:cd:d5:ac:88:49:
        97:e1:5b:91:e4:b8:7a:2d:ab:46:17:c4:61:a9:1a:b1:29:d3:
        50:52:af:0d:c2:4a:e1:2f:aa:00:1b:07:5a:7d:f9:d1:57:19:
        66:49:52:c5:74:3c:1e:3d:a3:1f:49:64:60:92:48:03:a2:37:
        52:26:69:24:34:d7:a4:68:fd:ea:b7:a6:d6:c2:b0:46:19:a7:
        2c:b9:cc:a3:0f:87:4c:cb:fb:69:d1:a9:c5:93:73:69:7c:34:
        aa:3d:f0:98:83:88:14:48:29:2d:ed:f9:c0:96:22:ae:03:7a:
        2f:09:ad:43:6d:a3:12:d5:8c:48:e6:65:ca:e1:97:b4:ec:d7:
        aa:fc:db:e2:cf:16:30:2c:46:f3:dd:a5:37:db:d9:0f:99:c5:
        74:e7:21:2d:ca:2b:c5:4b:50:56:0a:2c:0d:25:30:56:39:87:
        33:b2:ae:d7:98:74:e9:3d:ce:78:ca:1b:bd:ea:f8:a6:3f:2a:
        a4:21:3b:19:9e:b5:0d:e6:6e:d8:d2:d6:b0:e2:aa:ce:54:e6:
        51:98:65:ee
-----BEGIN CERTIFICATE-----
MIIEXjCCA0agAwIBAgIUZ2P1Ka9Eunnv3dy/u6s+NiK4cSYwDQYJKoZIhvcNAQEM
BQAwXTELMAkGA1UEBhMCREUxDjAMBgNVBAgMBVNUQVRFMQ0wCwYDVQQHDARDSVRZ
MQwwCgYDVQQKDANPUkcxEDAOBgNVBAsMB09SR1VOSVQxDzANBgNVBAMMBlJvb3RD
QTAeFw0yMzEwMDIxMzA5MTFaFw0yNTAyMTMxMzA5MTFaME0xCzAJBgNVBAYTAkRF
MQ4wDAYDVQQIDAVTVEFURTEMMAoGA1UECgwDT1JHMRAwDgYDVQQLDAdPUkdVTklU
MQ4wDAYDVQQDDAVPcmdDYTCCASIwDQYJKoZIhvcNAQEBBQADggEPADCCAQoCggEB
AOAlH69NWSOCpvHJM9HGEEet9PK2lqp5K0WX09ilKf6cuSwmMDdfrmlqrIXgKNPT
foPIhypw5aZ4mdlC+dMXwOG8TFGv8Kqo+xllJ5E1gFo9/ZAL/K+h068mArp8Jryq
CG7P1V3tyYwzn2NRRUkf8h8SwnzkQgWK7zPTDuVEWJmIqi/jXzfYNvshrJAPgrlV
vJ66I3BKg8BEN8IKmgP7HUrSZ6hw4IyywdfY58m97m/2Tvcl8kubkzMoQBjG8Ud4
DYT6f/SCmzfwN4Qlta71iE/S2X5hwI6SJMgyVcvEjOa+H+gy4p8YHi+mj4An1Hd7
XS3L66S4LyigODSlkchutnECAwEAAaOCASQwggEgMAwGA1UdEwQFMAMBAf8wCwYD
VR0PBAQDAgKkMB0GA1UdJQQWMBQGCCsGAQUFBwMBBggrBgEFBQcDAjAoBglghkgB
hvhCAQ0EGxYZU1NMIEdlbmVyYXRlZCBDZXJ0aWZpY2F0ZTAdBgNVHQ4EFgQUm8EH
Xqtcfmue5CN7GGE0y9AGkTswgZoGA1UdIwSBkjCBj4AUbm1LNSIjPhMYpZNhDpy+
HtK4G9ShYaRfMF0xCzAJBgNVBAYTAkRFMQ4wDAYDVQQIDAVTVEFURTENMAsGA1UE
BwwEQ0lUWTEMMAoGA1UECgwDT1JHMRAwDgYDVQQLDAdPUkdVTklUMQ8wDQYDVQQD
DAZSb290Q0GCFEmWBEiFyw3sLDH+7+nLEivbgPhxMA0GCSqGSIb3DQEBDAUAA4IB
AQB4Wqzeh6P71eEpT8MbOSvaKXgcBz3j29qKQD3D1FGdIVnSN2b1R2m4liou8DUa
W1sjzdWsiEmX4VuR5Lh6LatGF8RhqRqxKdNQUq8NwkrhL6oAGwdaffnRVxlmSVLF
dDwePaMfSWRgkkgDojdSJmkkNNekaP3qt6bWwrBGGacsucyjD4dMy/tp0anFk3Np
fDSqPfCYg4gUSCkt7fnAliKuA3ovCa1DbaMS1YxI5mXK4Ze07Neq/NvizxYwLEbz
3aU329kPmcV05yEtyivFS1BWCiwNJTBWOYczsq7XmHTpPc54yhu96vimPyqkITsZ
nrUN5m7Y0taw4qrOVOZRmGXu
-----END CERTIFICATE-----
Certificate:
    Data:
        Version: 3 (0x2)
        Serial Number:
            67:63:f5:29:af:44:ba:79:ef:dd:dc:bf:bb:ab:3e:36:22:b8:71:27
        Signature Algorithm: sha384WithRSAEncryption
        Issuer: C=DE, ST=STATE, O=ORG, OU=ORGUNIT, CN=OrgCa
        Validity
            Not Before: Oct  2 13:09:11 2023 GMT
            Not After : Nov  5 13:09:11 2024 GMT
        Subject: C=DE, ST=STATE, O=ORG, OU=ORGUNIT, CN=TeamCA
        Subject Public Key Info:
            Public Key Algorithm: rsaEncryption
                Public-Key: (2048 bit)
                Modulus:
                    00:eb:35:fe:18:8f:59:de:23:4a:84:bc:de:7b:f1:
                    79:f8:1a:5d:94:95:54:2c:00:bd:42:c1:e6:f5:c6:
                    ca:25:da:97:cd:5b:85:d6:89:8a:7c:45:11:9e:df:
                    65:10:68:e4:49:6a:cf:fd:76:48:08:c7:09:aa:e3:
                    88:c2:7e:2f:f9:85:b4:df:d4:00:ec:a9:71:38:1d:
                    ff:8d:d4:d1:84:2a:f9:9b:e7:7f:e1:61:3e:75:06:
                    7f:18:66:59:23:96:e6:c2:75:11:e7:f4:f3:47:7b:
                    e6:17:8c:25:d9:ee:da:01:d6:cd:94:9e:a7:8e:35:
                    f6:d8:24:d6:cf:58:4f:29:36:42:18:96:aa:87:ca:
                    ad:af:05:a2:e5:a6:6b:4f:42:98:e3:4e:86:b4:d7:
                    1f:2f:db:c3:5b:bd:e9:da:7d:d0:d9:8d:83:c9:28:
                    56:27:e7:0d:a2:15:88:99:af:eb:a3:85:73:9e:3d:
                    64:70:01:be:cb:71:c0:d8:ca:e7:6e:25:b7:3b:fe:
                    73:0a:92:d2:23:2d:f5:f4:9c:0e:d6:65:c6:ef:6c:
                    9a:c5:c5:af:70:10:ba:fc:2d:b1:29:26:88:9e:06:
                    e5:63:5f:d4:25:0c:98:18:f0:46:77:86:f5:98:00:
                    63:38:3a:36:81:27:94:2a:cc:84:24:75:01:54:ed:
                    a4:d7
                Exponent: 65537 (0x10001)
        X509v3 extensions:
            X509v3 Basic Constraints:
                CA:TRUE
            X509v3 Key Usage:
                Digital Signature, Key Encipherment, Certificate Sign
            X509v3 Extended Key Usage:
                TLS Web Server Authentication, TLS Web Client Authentication
            Netscape Comment:
                SSL Generated Certificate
            X509v3 Subject Key Identifier:
                62:00:25:E4:EE:70:E5:37:2D:1E:9E:AE:4E:B7:3E:FC:62:08:BF:27
            X509v3 Authority Key Identifier:
                keyid:9B:C1:07:5E:AB:5C:7E:6B:9E:E4:23:7B:18:61:34:CB:D0:06:91:3B
                DirName:/C=DE/ST=STATE/L=CITY/O=ORG/OU=ORGUNIT/CN=RootCA
                serial:67:63:F5:29:AF:44:BA:79:EF:DD:DC:BF:BB:AB:3E:36:22:B8:71:26
    Signature Algorithm: sha384WithRSAEncryption
    Signature Value:
        26:a0:7e:98:44:58:ab:81:9f:f9:a6:04:dc:08:59:d8:b4:5a:
        11:47:8e:9c:23:7f:53:66:f9:b9:93:5b:df:50:d6:2a:11:a1:
        cb:1c:d5:2e:cd:5d:f3:eb:45:b5:fe:01:9f:0c:d0:f0:1d:8f:
        57:ac:0f:2a:5b:a4:6a:57:a7:0e:25:e1:69:25:f5:ef:2f:3c:
        60:9c:26:ac:e8:cd:3a:89:fa:84:18:da:bb:83:f6:f5:02:53:
        51:f2:ab:76:e8:fb:d0:63:dc:5c:09:c5:f7:de:68:90:c0:50:
        80:ec:88:ff:16:95:a0:c1:97:69:fb:1f:9d:43:32:0c:5d:f9:
        bc:5e:48:c4:52:f2:f3:43:1f:ff:c5:bb:58:6c:ee:11:cb:0c:
        22:45:29:1c:62:26:78:9c:31:10:d8:14:24:17:17:4a:7d:a9:
        1d:3b:5b:64:8e:b2:84:91:66:fb:f2:e6:37:3d:c2:1b:db:98:
        11:10:6d:67:9c:95:a5:d9:a4:8a:e1:b6:c4:ab:2d:f7:48:3a:
        66:9b:9c:af:9b:b7:a5:27:cc:4b:53:e6:21:0c:2b:6c:c8:b2:
        cc:6c:51:58:df:b2:bc:53:ed:25:0f:4a:e6:44:6c:be:74:46:
        0b:6a:df:46:76:cd:c3:8d:c0:9b:93:3c:93:50:22:a1:f4:fa:
        38:9a:85:1f
-----BEGIN CERTIFICATE-----
MIIETzCCAzegAwIBAgIUZ2P1Ka9Eunnv3dy/u6s+NiK4cScwDQYJKoZIhvcNAQEM
BQAwTTELMAkGA1UEBhMCREUxDjAMBgNVBAgMBVNUQVRFMQwwCgYDVQQKDANPUkcx
EDAOBgNVBAsMB09SR1VOSVQxDjAMBgNVBAMMBU9yZ0NhMB4XDTIzMTAwMjEzMDkx
MVoXDTI0MTEwNTEzMDkxMVowTjELMAkGA1UEBhMCREUxDjAMBgNVBAgMBVNUQVRF
MQwwCgYDVQQKDANPUkcxEDAOBgNVBAsMB09SR1VOSVQxDzANBgNVBAMMBlRlYW1D
QTCCASIwDQYJKoZIhvcNAQEBBQADggEPADCCAQoCggEBAOs1/hiPWd4jSoS83nvx
efgaXZSVVCwAvULB5vXGyiXal81bhdaJinxFEZ7fZRBo5Elqz/12SAjHCarjiMJ+
L/mFtN/UAOypcTgd/43U0YQq+Zvnf+FhPnUGfxhmWSOW5sJ1Eef080d75heMJdnu
2gHWzZSep4419tgk1s9YTyk2QhiWqofKra8FouWma09CmONOhrTXHy/bw1u96dp9
0NmNg8koVifnDaIViJmv66OFc549ZHABvstxwNjK524ltzv+cwqS0iMt9fScDtZl
xu9smsXFr3AQuvwtsSkmiJ4G5WNf1CUMmBjwRneG9ZgAYzg6NoEnlCrMhCR1AVTt
pNcCAwEAAaOCASQwggEgMAwGA1UdEwQFMAMBAf8wCwYDVR0PBAQDAgKkMB0GA1Ud
JQQWMBQGCCsGAQUFBwMBBggrBgEFBQcDAjAoBglghkgBhvhCAQ0EGxYZU1NMIEdl
bmVyYXRlZCBDZXJ0aWZpY2F0ZTAdBgNVHQ4EFgQUYgAl5O5w5TctHp6uTrc+/GII
vycwgZoGA1UdIwSBkjCBj4AUm8EHXqtcfmue5CN7GGE0y9AGkTuhYaRfMF0xCzAJ
BgNVBAYTAkRFMQ4wDAYDVQQIDAVTVEFURTENMAsGA1UEBwwEQ0lUWTEMMAoGA1UE
CgwDT1JHMRAwDgYDVQQLDAdPUkdVTklUMQ8wDQYDVQQDDAZSb290Q0GCFGdj9Smv
RLp5793cv7urPjYiuHEmMA0GCSqGSIb3DQEBDAUAA4IBAQAmoH6YRFirgZ/5pgTc
CFnYtFoRR46cI39TZvm5k1vfUNYqEaHLHNUuzV3z60W1/gGfDNDwHY9XrA8qW6Rq
V6cOJeFpJfXvLzxgnCas6M06ifqEGNq7g/b1AlNR8qt26PvQY9xcCcX33miQwFCA
7Ij/FpWgwZdp+x+dQzIMXfm8XkjEUvLzQx//xbtYbO4RywwiRSkcYiZ4nDEQ2BQk
FxdKfakdO1tkjrKEkWb78uY3PcIb25gREG1nnJWl2aSK4bbEqy33SDpmm5yvm7el
J8xLU+YhDCtsyLLMbFFY37K8U+0lD0rmRGy+dEYLat9Gds3DjcCbkzyTUCKh9Po4
moUf
-----END CERTIFICATE-----
